target datalayout = "e-m:e-p270:32:32-p271:32:32-p272:64:64-i64:64-i128:128-f80:128-n8:16:32:64-S128"
target triple = "x86_64-pc-linux-gnu"

%struct.chunkfile = type { ptr, ptr, i64, i64 }
%struct.chunk_info = type { i32, i64, ptr, ptr }

@.str.10 = private unnamed_addr constant [27 x i8] c"size_t overflow: %lu * %lu\00", align 1

; Function Attrs: inlinehint nounwind uwtable
define internal i64 @st_mult(i64 noundef %0, i64 noundef %1) #4 {
  %3 = alloca i64, align 8
  %4 = alloca i64, align 8
  store i64 %0, ptr %3, align 8, !tbaa !19
  store i64 %1, ptr %4, align 8, !tbaa !19
  %5 = load i64, ptr %3, align 8, !tbaa !19
  %6 = icmp ne i64 %5, 0
  br i1 %6, label %7, label %15

7:                                                ; preds = %2
  %8 = load i64, ptr %4, align 8, !tbaa !19
  %9 = load i64, ptr %3, align 8, !tbaa !19
  %10 = udiv i64 -1, %9
  %11 = icmp ugt i64 %8, %10
  br i1 %11, label %12, label %15

12:                                               ; preds = %7
  %13 = load i64, ptr %3, align 8, !tbaa !19
  %14 = load i64, ptr %4, align 8, !tbaa !19
  call void (ptr, ...) @die(ptr noundef @.str.10, i64 noundef %13, i64 noundef %14) #8
  unreachable

15:                                               ; preds = %7, %2
  %16 = load i64, ptr %3, align 8, !tbaa !19
  %17 = load i64, ptr %4, align 8, !tbaa !19
  %18 = mul i64 %16, %17
  ret i64 %18
}

; Function Attrs: nounwind uwtable
define dso_local void @add_chunk(ptr noundef %0, i32 noundef %1, i64 noundef %2, ptr noundef %3) #0 {
  %5 = alloca ptr, align 8
  %6 = alloca i32, align 4
  %7 = alloca i64, align 8
  %8 = alloca ptr, align 8
  store ptr %0, ptr %5, align 8, !tbaa !9
  store i32 %1, ptr %6, align 4, !tbaa !17
  store i64 %2, ptr %7, align 8, !tbaa !19
  store ptr %3, ptr %8, align 8, !tbaa !20
  br label %9

9:                                                ; preds = %4
  %10 = load ptr, ptr %5, align 8, !tbaa !9
  %11 = getelementptr inbounds nuw %struct.chunkfile, ptr %10, i32 0, i32 2
  %12 = load i64, ptr %11, align 8, !tbaa !16
  %13 = add i64 %12, 1
  %14 = load ptr, ptr %5, align 8, !tbaa !9
  %15 = getelementptr inbounds nuw %struct.chunkfile, ptr %14, i32 0, i32 3
  %16 = load i64, ptr %15, align 8, !tbaa !21
  %17 = icmp ugt i64 %13, %16
  br i1 %17, label %18, label %57

18:                                               ; preds = %9
  %19 = load ptr, ptr %5, align 8, !tbaa !9
  %20 = getelementptr inbounds nuw %struct.chunkfile, ptr %19, i32 0, i32 3
  %21 = load i64, ptr %20, align 8, !tbaa !21
  %22 = add i64 %21, 16
  %23 = mul i64 %22, 3
  %24 = udiv i64 %23, 2
  %25 = load ptr, ptr %5, align 8, !tbaa !9
  %26 = getelementptr inbounds nuw %struct.chunkfile, ptr %25, i32 0, i32 2
  %27 = load i64, ptr %26, align 8, !tbaa !16
  %28 = add i64 %27, 1
  %29 = icmp ult i64 %24, %28
  br i1 %29, label %30, label %37

30:                                               ; preds = %18
  %31 = load ptr, ptr %5, align 8, !tbaa !9
  %32 = getelementptr inbounds nuw %struct.chunkfile, ptr %31, i32 0, i32 2
  %33 = load i64, ptr %32, align 8, !tbaa !16
  %34 = add i64 %33, 1
  %35 = load ptr, ptr %5, align 8, !tbaa !9
  %36 = getelementptr inbounds nuw %struct.chunkfile, ptr %35, i32 0, i32 3
  store i64 %34, ptr %36, align 8, !tbaa !21
  br label %46

37:                                               ; preds = %18
  %38 = load ptr, ptr %5, align 8, !tbaa !9
  %39 = getelementptr inbounds nuw %struct.chunkfile, ptr %38, i32 0, i32 3
  %40 = load i64, ptr %39, align 8, !tbaa !21
  %41 = add i64 %40, 16
  %42 = mul i64 %41, 3
  %43 = udiv i64 %42, 2
  %44 = load ptr, ptr %5, align 8, !tbaa !9
  %45 = getelementptr inbounds nuw %struct.chunkfile, ptr %44, i32 0, i32 3
  store i64 %43, ptr %45, align 8, !tbaa !21
  br label %46

46:                                               ; preds = %37, %30
  %47 = load ptr, ptr %5, align 8, !tbaa !9
  %48 = getelementptr inbounds nuw %struct.chunkfile, ptr %47, i32 0, i32 1
  %49 = load ptr, ptr %48, align 8, !tbaa !15
  %50 = load ptr, ptr %5, align 8, !tbaa !9
  %51 = getelementptr inbounds nuw %struct.chunkfile, ptr %50, i32 0, i32 3
  %52 = load i64, ptr %51, align 8, !tbaa !21
  %53 = call i64 @st_mult(i64 noundef 32, i64 noundef %52)
  %54 = call ptr @xrealloc(ptr noundef %49, i64 noundef %53)
  %55 = load ptr, ptr %5, align 8, !tbaa !9
  %56 = getelementptr inbounds nuw %struct.chunkfile, ptr %55, i32 0, i32 1
  store ptr %54, ptr %56, align 8, !tbaa !15
  br label %57

57:                                               ; preds = %46, %9
  br label %58

58:                                               ; preds = %57
  %59 = load i32, ptr %6, align 4, !tbaa !17
  %60 = load ptr, ptr %5, align 8, !tbaa !9
  %61 = getelementptr inbounds nuw %struct.chunkfile, ptr %60, i32 0, i32 1
  %62 = load ptr, ptr %61, align 8, !tbaa !15
  %63 = load ptr, ptr %5, align 8, !tbaa !9
  %64 = getelementptr inbounds nuw %struct.chunkfile, ptr %63, i32 0, i32 2
  %65 = load i64, ptr %64, align 8, !tbaa !16
  %66 = getelementptr inbounds nuw %struct.chunk_info, ptr %62, i64 %65
  %67 = getelementptr inbounds nuw %struct.chunk_info, ptr %66, i32 0, i32 0
  store i32 %59, ptr %67, align 8, !tbaa !22
  %68 = load ptr, ptr %8, align 8, !tbaa !20
  %69 = load ptr, ptr %5, align 8, !tbaa !9
  %70 = getelementptr inbounds nuw %struct.chunkfile, ptr %69, i32 0, i32 1
  %71 = load ptr, ptr %70, align 8, !tbaa !15
  %72 = load ptr, ptr %5, align 8, !tbaa !9
  %73 = getelementptr inbounds nuw %struct.chunkfile, ptr %72, i32 0, i32 2
  %74 = load i64, ptr %73, align 8, !tbaa !16
  %75 = getelementptr inbounds nuw %struct.chunk_info, ptr %71, i64 %74
  %76 = getelementptr inbounds nuw %struct.chunk_info, ptr %75, i32 0, i32 2
  store ptr %68, ptr %76, align 8, !tbaa !24
  %77 = load i64, ptr %7, align 8, !tbaa !19
  %78 = load ptr, ptr %5, align 8, !tbaa !9
  %79 = getelementptr inbounds nuw %struct.chunkfile, ptr %78, i32 0, i32 1
  %80 = load ptr, ptr %79, align 8, !tbaa !15
  %81 = load ptr, ptr %5, align 8, !tbaa !9
  %82 = getelementptr inbounds nuw %struct.chunkfile, ptr %81, i32 0, i32 2
  %83 = load i64, ptr %82, align 8, !tbaa !16
  %84 = getelementptr inbounds nuw %struct.chunk_info, ptr %80, i64 %83
  %85 = getelementptr inbounds nuw %struct.chunk_info, ptr %84, i32 0, i32 1
  store i64 %77, ptr %85, align 8, !tbaa !25
  %86 = load ptr, ptr %5, align 8, !tbaa !9
  %87 = getelementptr inbounds nuw %struct.chunkfile, ptr %86, i32 0, i32 2
  %88 = load i64, ptr %87, align 8, !tbaa !16
  %89 = add i64 %88, 1
  store i64 %89, ptr %87, align 8, !tbaa !16
  ret void
}