; Function Attrs: nounwind uwtable
define dso_local void @add_chunk(ptr noundef captures(none) %0, i32 noundef %1, i64 noundef %2, ptr noundef %3) local_unnamed_addr #0 {
  %5 = getelementptr inbounds nuw i8, ptr %0, i64 16
  %6 = load i64, ptr %5, align 8, !tbaa !13
  %7 = add i64 %6, 1
  %8 = getelementptr inbounds nuw i8, ptr %0, i64 24
  %9 = load i64, ptr %8, align 8, !tbaa !14
  %10 = icmp ugt i64 %7, %9
  br i1 %10, label %11, label %._crit_edge

._crit_edge:                                      ; preds = %4
  %.phi.trans.insert = getelementptr inbounds nuw i8, ptr %0, i64 8
  %.pre = load ptr, ptr %.phi.trans.insert, align 8, !tbaa !12
  br label %21

11:                                               ; preds = %4
  %12 = mul i64 %9, 3
  %13 = add i64 %12, 48
  %14 = lshr i64 %13, 1
  %. = tail call i64 @llvm.umax.i64(i64 %14, i64 %7)
  store i64 %., ptr %8, align 8, !tbaa !14
  %15 = icmp ugt i64 %., 576460752303423487
  br i1 %15, label %16, label %st_mult.exit

16:                                               ; preds = %11
  tail call void (ptr, ...) @die(ptr noundef nonnull @.str.10, i64 noundef 32, i64 noundef %.) #12
  unreachable

st_mult.exit:                                     ; preds = %11
  %17 = getelementptr inbounds nuw i8, ptr %0, i64 8
  %18 = load ptr, ptr %17, align 8, !tbaa !12
  %19 = shl nuw i64 %., 5
  %20 = tail call ptr @xrealloc(ptr noundef %18, i64 noundef %19) #11
  store ptr %20, ptr %17, align 8, !tbaa !12
  %.pre22 = load i64, ptr %5, align 8, !tbaa !13
  %.pre23 = add i64 %.pre22, 1
  br label %21

21:                                               ; preds = %._crit_edge, %st_mult.exit
  %.pre-phi = phi i64 [ %7, %._crit_edge ], [ %.pre23, %st_mult.exit ]
  %22 = phi i64 [ %6, %._crit_edge ], [ %.pre22, %st_mult.exit ]
  %23 = phi ptr [ %.pre, %._crit_edge ], [ %20, %st_mult.exit ]
  %24 = getelementptr inbounds nuw %struct.chunk_info, ptr %23, i64 %22
  store i32 %1, ptr %24, align 8, !tbaa !15
  %25 = getelementptr inbounds nuw %struct.chunk_info, ptr %23, i64 %22, i32 2
  store ptr %3, ptr %25, align 8, !tbaa !18
  %26 = getelementptr inbounds nuw %struct.chunk_info, ptr %23, i64 %22, i32 1
  store i64 %2, ptr %26, align 8, !tbaa !19
  store i64 %.pre-phi, ptr %5, align 8, !tbaa !13
  ret void
}